; ModuleID = 'source-C-CXX/38/2108.c'
source_filename = "source-C-CXX/38/2108.c"
target datalayout = "e-m:e-p270:32:32-p271:32:32-p272:64:64-i64:64-f80:128-n8:16:32:64-S128"
target triple = "x86_64-pc-linux-gnu"

%struct.student = type { [20 x i8], i32, i32, i8, i8, i32 }

@.str = private unnamed_addr constant [3 x i8] c"%d\00", align 1
@.str.1 = private unnamed_addr constant [18 x i8] c"%s %d %d %c %c %d\00", align 1
@stu = dso_local global [300 x %struct.student] zeroinitializer, align 16
@.str.2 = private unnamed_addr constant [10 x i8] c"%s\0A%d\0A%d\0A\00", align 1

; Function Attrs: nofree nounwind sspstrong uwtable
define dso_local i32 @main() local_unnamed_addr #0 {
  %1 = alloca i32, align 4
  %2 = alloca [300 x i32], align 16
  %3 = alloca [20 x i8], align 16
  %4 = bitcast i32* %1 to i8*
  call void @llvm.lifetime.start.p0i8(i64 4, i8* nonnull %4) #4
  %5 = bitcast [300 x i32]* %2 to i8*
  call void @llvm.lifetime.start.p0i8(i64 1200, i8* nonnull %5) #4
  %6 = getelementptr inbounds [20 x i8], [20 x i8]* %3, i64 0, i64 0
  call void @llvm.lifetime.start.p0i8(i64 20, i8* nonnull %6) #4
  %7 = call i32 (i8*, ...) @__isoc99_scanf(i8* getelementptr inbounds ([3 x i8], [3 x i8]* @.str, i64 0, i64 0), i32* nonnull %1)
  %8 = load i32, i32* %1, align 4, !tbaa !5
  %9 = icmp sgt i32 %8, 0
  br i1 %9, label %14, label %75

10:                                               ; preds = %14
  %11 = icmp sgt i32 %24, 0
  br i1 %11, label %12, label %75

12:                                               ; preds = %10
  %13 = zext i32 %24 to i64
  br label %27

14:                                               ; preds = %0, %14
  %15 = phi i64 [ %23, %14 ], [ 0, %0 ]
  %16 = getelementptr inbounds [300 x %struct.student], [300 x %struct.student]* @stu, i64 0, i64 %15, i32 0
  %17 = getelementptr inbounds [300 x %struct.student], [300 x %struct.student]* @stu, i64 0, i64 %15, i32 1
  %18 = getelementptr inbounds [300 x %struct.student], [300 x %struct.student]* @stu, i64 0, i64 %15, i32 2
  %19 = getelementptr inbounds [300 x %struct.student], [300 x %struct.student]* @stu, i64 0, i64 %15, i32 3
  %20 = getelementptr inbounds [300 x %struct.student], [300 x %struct.student]* @stu, i64 0, i64 %15, i32 4
  %21 = getelementptr inbounds [300 x %struct.student], [300 x %struct.student]* @stu, i64 0, i64 %15, i32 5
  %22 = call i32 (i8*, ...) @__isoc99_scanf(i8* getelementptr inbounds ([18 x i8], [18 x i8]* @.str.1, i64 0, i64 0), [20 x i8]* nonnull %16, i32* nonnull %17, i32* nonnull %18, i8* nonnull %19, i8* nonnull %20, i32* nonnull %21)
  %23 = add nuw nsw i64 %15, 1
  %24 = load i32, i32* %1, align 4, !tbaa !5
  %25 = sext i32 %24 to i64
  %26 = icmp slt i64 %23, %25
  br i1 %26, label %14, label %10, !llvm.loop !9

27:                                               ; preds = %12, %70
  %28 = phi i64 [ 0, %12 ], [ %73, %70 ]
  %29 = phi i32 [ 0, %12 ], [ %72, %70 ]
  %30 = getelementptr inbounds [300 x i32], [300 x i32]* %2, i64 0, i64 %28
  store i32 0, i32* %30, align 4, !tbaa !5
  %31 = getelementptr inbounds [300 x %struct.student], [300 x %struct.student]* @stu, i64 0, i64 %28, i32 1
  %32 = load i32, i32* %31, align 4, !tbaa !11
  %33 = icmp sgt i32 %32, 80
  br i1 %33, label %34, label %59

34:                                               ; preds = %27
  %35 = getelementptr inbounds [300 x %struct.student], [300 x %struct.student]* @stu, i64 0, i64 %28, i32 5
  %36 = load i32, i32* %35, align 4, !tbaa !13
  %37 = icmp sgt i32 %36, 0
  br i1 %37, label %38, label %39

38:                                               ; preds = %34
  store i32 8000, i32* %30, align 4, !tbaa !5
  br label %39

39:                                               ; preds = %38, %34
  %40 = phi i32 [ 8000, %38 ], [ 0, %34 ]
  %41 = icmp sgt i32 %32, 85
  br i1 %41, label %42, label %59

42:                                               ; preds = %39
  %43 = getelementptr inbounds [300 x %struct.student], [300 x %struct.student]* @stu, i64 0, i64 %28, i32 2
  %44 = load i32, i32* %43, align 4, !tbaa !14
  %45 = icmp sgt i32 %44, 80
  %46 = add nuw nsw i32 %40, 4000
  %47 = select i1 %45, i32 %46, i32 %40
  %48 = icmp sgt i32 %32, 90
  %49 = add nuw nsw i32 %47, 2000
  %50 = select i1 %48, i32 %49, i32 %47
  %51 = or i1 %45, %48
  br i1 %51, label %52, label %53

52:                                               ; preds = %42
  store i32 %50, i32* %30, align 4, !tbaa !5
  br label %53

53:                                               ; preds = %42, %52
  %54 = getelementptr inbounds [300 x %struct.student], [300 x %struct.student]* @stu, i64 0, i64 %28, i32 4
  %55 = load i8, i8* %54, align 1, !tbaa !15
  %56 = icmp eq i8 %55, 89
  br i1 %56, label %57, label %59

57:                                               ; preds = %53
  %58 = add nuw nsw i32 %50, 1000
  store i32 %58, i32* %30, align 4, !tbaa !5
  br label %59

59:                                               ; preds = %39, %27, %57, %53
  %60 = phi i32 [ %40, %39 ], [ 0, %27 ], [ %58, %57 ], [ %50, %53 ]
  %61 = getelementptr inbounds [300 x %struct.student], [300 x %struct.student]* @stu, i64 0, i64 %28, i32 2
  %62 = load i32, i32* %61, align 4, !tbaa !14
  %63 = icmp sgt i32 %62, 80
  br i1 %63, label %64, label %70

64:                                               ; preds = %59
  %65 = getelementptr inbounds [300 x %struct.student], [300 x %struct.student]* @stu, i64 0, i64 %28, i32 3
  %66 = load i8, i8* %65, align 4, !tbaa !16
  %67 = icmp eq i8 %66, 89
  br i1 %67, label %68, label %70

68:                                               ; preds = %64
  %69 = add nuw nsw i32 %60, 850
  store i32 %69, i32* %30, align 4, !tbaa !5
  br label %70

70:                                               ; preds = %68, %64, %59
  %71 = phi i32 [ %69, %68 ], [ %60, %64 ], [ %60, %59 ]
  %72 = add nsw i32 %71, %29
  %73 = add nuw nsw i64 %28, 1
  %74 = icmp eq i64 %73, %13
  br i1 %74, label %77, label %27, !llvm.loop !17

75:                                               ; preds = %10, %0
  %76 = call i8* @strcpy(i8* noundef nonnull %6, i8* noundef nonnull dereferenceable(1) getelementptr inbounds ([300 x %struct.student], [300 x %struct.student]* @stu, i64 0, i64 0, i32 0, i64 0)) #4
  br label %97

77:                                               ; preds = %70
  %78 = getelementptr inbounds [300 x i32], [300 x i32]* %2, i64 0, i64 0
  %79 = load i32, i32* %78, align 16, !tbaa !5
  %80 = call i8* @strcpy(i8* noundef nonnull %6, i8* noundef nonnull dereferenceable(1) getelementptr inbounds ([300 x %struct.student], [300 x %struct.student]* @stu, i64 0, i64 0, i32 0, i64 0)) #4
  %81 = icmp sgt i32 %24, 1
  br i1 %81, label %82, label %97

82:                                               ; preds = %77
  %83 = zext i32 %24 to i64
  br label %84

84:                                               ; preds = %82, %93
  %85 = phi i64 [ 1, %82 ], [ %95, %93 ]
  %86 = phi i32 [ %79, %82 ], [ %94, %93 ]
  %87 = getelementptr inbounds [300 x i32], [300 x i32]* %2, i64 0, i64 %85
  %88 = load i32, i32* %87, align 4, !tbaa !5
  %89 = icmp sgt i32 %88, %86
  br i1 %89, label %90, label %93

90:                                               ; preds = %84
  %91 = getelementptr inbounds [300 x %struct.student], [300 x %struct.student]* @stu, i64 0, i64 %85, i32 0, i64 0
  %92 = call i8* @strcpy(i8* noundef nonnull %6, i8* noundef nonnull %91) #4
  br label %93

93:                                               ; preds = %84, %90
  %94 = phi i32 [ %88, %90 ], [ %86, %84 ]
  %95 = add nuw nsw i64 %85, 1
  %96 = icmp eq i64 %95, %83
  br i1 %96, label %97, label %84, !llvm.loop !18

97:                                               ; preds = %93, %75, %77
  %98 = phi i32 [ %72, %77 ], [ 0, %75 ], [ %72, %93 ]
  %99 = phi i32 [ %79, %77 ], [ undef, %75 ], [ %94, %93 ]
  %100 = call i32 (i8*, ...) @printf(i8* nonnull dereferenceable(1) getelementptr inbounds ([10 x i8], [10 x i8]* @.str.2, i64 0, i64 0), i8* nonnull %6, i32 %99, i32 %98)
  call void @llvm.lifetime.end.p0i8(i64 20, i8* nonnull %6) #4
  call void @llvm.lifetime.end.p0i8(i64 1200, i8* nonnull %5) #4
  call void @llvm.lifetime.end.p0i8(i64 4, i8* nonnull %4) #4
  ret i32 0
}

; Function Attrs: argmemonly mustprogress nofree nosync nounwind willreturn
declare void @llvm.lifetime.start.p0i8(i64 immarg, i8* nocapture) #1

; Function Attrs: nofree nounwind
declare noundef i32 @__isoc99_scanf(i8* nocapture noundef readonly, ...) local_unnamed_addr #2

; Function Attrs: argmemonly mustprogress nofree nounwind willreturn
declare i8* @strcpy(i8* noalias returned writeonly, i8* noalias nocapture readonly) local_unnamed_addr #3

; Function Attrs: nofree nounwind
declare noundef i32 @printf(i8* nocapture noundef readonly, ...) local_unnamed_addr #2

; Function Attrs: argmemonly mustprogress nofree nosync nounwind willreturn
declare void @llvm.lifetime.end.p0i8(i64 immarg, i8* nocapture) #1


!llvm.module.flags = !{!0, !1, !2, !3}
!llvm.ident = !{!4}

!0 = !{i32 1, !"wchar_size", i32 4}
!1 = !{i32 7, !"PIC Level", i32 2}
!2 = !{i32 7, !"PIE Level", i32 2}
!3 = !{i32 7, !"uwtable", i32 1}
!4 = !{!"clang version 13.0.0"}
!5 = !{!6, !6, i64 0}
!6 = !{!"int", !7, i64 0}
!7 = !{!"omnipotent char", !8, i64 0}
!8 = !{!"Simple C/C++ TBAA"}
!9 = distinct !{!9, !10}
!10 = !{!"llvm.loop.mustprogress"}
!11 = !{!12, !6, i64 20}
!12 = !{!"student", !7, i64 0, !6, i64 20, !6, i64 24, !7, i64 28, !7, i64 29, !6, i64 32}
!13 = !{!12, !6, i64 32}
!14 = !{!12, !6, i64 24}
!15 = !{!12, !7, i64 29}
!16 = !{!12, !7, i64 28}
!17 = distinct !{!17, !10}
!18 = distinct !{!18, !10}
